; Function Attrs: inlinehint nounwind uwtable
define internal fastcc void @php_json_pretty_print_char(ptr noundef %0, i32 noundef %1, i8 noundef signext range(i8 10, 33) %2) unnamed_addr #7 {
  %4 = and i32 %1, 128
  %.not = icmp eq i32 %4, 0
  br i1 %.not, label %20, label %5

5:                                                ; preds = %3
  %6 = load ptr, ptr %0, align 8, !tbaa !4
  %.not.i.i = icmp eq ptr %6, null
  br i1 %.not.i.i, label %13, label %7, !prof !11

7:                                                ; preds = %5
  %8 = getelementptr inbounds nuw i8, ptr %6, i64 16
  %9 = load i64, ptr %8, align 8, !tbaa !12
  %10 = add i64 %9, 1
  %11 = getelementptr inbounds nuw i8, ptr %0, i64 8
  %12 = load i64, ptr %11, align 8, !tbaa !16
  %.not12.i.i = icmp ult i64 %10, %12
  br i1 %.not12.i.i, label %smart_str_appendc_ex.exit, label %13, !prof !17

13:                                               ; preds = %7, %5
  %.0.i.i = phi i64 [ 1, %5 ], [ %10, %7 ]
  tail call void @smart_str_erealloc(ptr noundef nonnull %0, i64 noundef %.0.i.i) #9
  %.pre = load ptr, ptr %0, align 8, !tbaa !4
  br label %smart_str_appendc_ex.exit

smart_str_appendc_ex.exit:                        ; preds = %7, %13
  %14 = phi ptr [ %.pre, %13 ], [ %6, %7 ]
  %.1.i.i = phi i64 [ %.0.i.i, %13 ], [ %10, %7 ]
  %15 = getelementptr inbounds nuw i8, ptr %14, i64 24
  %16 = add i64 %.1.i.i, -1
  %17 = getelementptr inbounds nuw [1 x i8], ptr %15, i64 0, i64 %16
  store i8 %2, ptr %17, align 1, !tbaa !18
  %18 = load ptr, ptr %0, align 8, !tbaa !4
  %19 = getelementptr inbounds nuw i8, ptr %18, i64 16
  store i64 %.1.i.i, ptr %19, align 8, !tbaa !12
  br label %20

20:                                               ; preds = %smart_str_appendc_ex.exit, %3
  ret void
}